ccopy_reg
_reconstructor
p0
(cargparse
Namespace
p1
c__builtin__
object
p2
Ntp3
Rp4
(dp5
S'cdsnr'
p6
I5
sS'fix_id_line'
p7
I00
sS'help'
p8
I00
sS'inclusive'
p9
I00
sS'clusterblast'
p10
I00
sS'cpus'
p11
I8
sS'seed'
p12
I0
sS'nclusters'
p13
I10
sS'sequences'
p14
(lp15
S'test.gbk'
p16
asS'cf_prob_thres'
p17
F0.6
sS'verbose'
p18
I00
sS'end'
p19
I-1
sS'enabled_cluster_types'
p20
(lp21
S't1pks'
p22
aS'transatpks'
p23
aS't2pks'
p24
aS't3pks'
p25
aS'otherks'
p26
aS'arylpolyene'
p27
aS'resorcinol'
p28
aS'ladderane'
p29
aS'PUFA'
p30
aS'nrps'
p31
aS'terpene'
p32
aS'lantipeptide'
p33
aS'bacteriocin'
p34
aS'thiopeptide'
p35
aS'linaridin'
p36
aS'cyanobactin'
p37
aS'glycocin'
p38
aS'LAP'
p39
aS'lassopeptide'
p40
aS'sactipeptide'
p41
aS'bottromycin'
p42
aS'head_to_tail'
p43
aS'microcin'
p44
aS'microviridin'
p45
aS'proteusin'
p46
aS'blactam'
p47
aS'amglyccycl'
p48
aS'aminocoumarin'
p49
aS'siderophore'
p50
aS'ectoine'
p51
aS'butyrolactone'
p52
aS'indole'
p53
aS'nucleoside'
p54
aS'phosphoglycolipid'
p55
aS'melanin'
p56
aS'oligosaccharide'
p57
aS'furan'
p58
aS'hserlactone'
p59
aS'phenazine'
p60
aS'phosphonate'
p61
aS'fused'
p62
aS'other'
p63
aS'cf_saccharide'
p64
aS'cf_fatty_acid '
p65
asS'minlength'
p66
I1000
sS'subclusterblast'
p67
I00
sS'start'
p68
I-1
sS'version'
p69
I00
sS'all_orfs'
p70
I00
sS'db_overwrite'
p71
I00
sS'cf_npfams'
p72
I5
sS'borderpredict'
p73
I00
sS'genefinding'
p74
S'glimmer'
p75
sS'list_plugins'
p76
I00
sS'smcogs'
p77
I00
sS'check_prereqs_only'
p78
I00
sS'run_asf'
p79
I00
sS'ecpred'
p80
S'none'
p81
sS'eukaryotic'
p82
I00
sS'knownclusterblast'
p83
I00
sS'full_hmmer'
p84
I00
sS'modeling'
p85
g81
sS'help_showall'
p86
I00
sS'homologyscalelimit'
p87
F0.0
sS'outputfoldername'
p88
S'testresults'
p89
sS'limit'
p90
I-1
sS'input_type'
p91
S'nucl'
p92
sS'debug'
p93
I00
sS'use_db'
p94
I00
sS'dbgclusterblast'
p95
S''
p96
sb.